; Function Attrs: mustprogress nofree norecurse nosync nounwind willreturn memory(argmem: read) uwtable
define dso_local range(i64 -1, 2) i64 @btboolcmp(ptr noundef readonly captures(none) %0) local_unnamed_addr #0 {
  %2 = getelementptr inbounds nuw i8, ptr %0, i64 32
  %3 = load i64, ptr %2, align 8
  %4 = icmp ne i64 %3, 0
  %5 = getelementptr inbounds nuw i8, ptr %0, i64 48
  %6 = load i64, ptr %5, align 8
  %7 = icmp ne i64 %6, 0
  %8 = zext i1 %4 to i64
  %.neg = sext i1 %7 to i64
  %9 = add nsw i64 %.neg, %8
  ret i64 %9
}